; Function Attrs: mustprogress nofree norecurse nounwind willreturn memory(readwrite, inaccessiblemem: none) uwtable
define noundef signext range(i8 0, 2) i8 @_ZNK6icu_7712UnifiedCache11_inProgressEPK12UHashElement(ptr noundef nonnull align 8 captures(none) dereferenceable(56) %0, ptr noundef readonly captures(none) %1) local_unnamed_addr #10 align 2 {
_ZNK6icu_7712UnifiedCache13removeHardRefEPKNS_12SharedObjectE.exit.i:
  %2 = getelementptr inbounds nuw i8, ptr %1, i64 16
  %3 = load ptr, ptr %2, align 8, !tbaa !41
  %4 = getelementptr inbounds nuw i8, ptr %3, i64 8
  %5 = load i32, ptr %4, align 8, !tbaa !42
  %6 = getelementptr inbounds nuw i8, ptr %1, i64 8
  %7 = load ptr, ptr %6, align 8, !tbaa !41
  %.not.i8.i = icmp eq ptr %7, null
  br i1 %.not.i8.i, label %_ZNK6icu_7712UnifiedCache6_fetchEPK12UHashElementRPKNS_12SharedObjectER10UErrorCode.exit, label %8

8:                                                ; preds = %_ZNK6icu_7712UnifiedCache13removeHardRefEPKNS_12SharedObjectE.exit.i
  %9 = getelementptr inbounds nuw i8, ptr %7, i64 12
  %10 = atomicrmw add ptr %9, i32 1 seq_cst, align 4
  %11 = icmp eq i32 %10, 0
  br i1 %11, label %12, label %21

12:                                               ; preds = %8
  %13 = getelementptr inbounds nuw i8, ptr %0, i64 24
  %14 = load i32, ptr %13, align 8, !tbaa !30
  %15 = add nsw i32 %14, 1
  store i32 %15, ptr %13, align 8, !tbaa !30
  br label %21

_ZNK6icu_7712UnifiedCache6_fetchEPK12UHashElementRPKNS_12SharedObjectER10UErrorCode.exit: ; preds = %_ZNK6icu_7712UnifiedCache13removeHardRefEPKNS_12SharedObjectE.exit.i
  %16 = getelementptr inbounds nuw i8, ptr %0, i64 48
  %17 = load ptr, ptr %16, align 8, !tbaa !33
  %18 = icmp eq ptr %17, null
  %19 = icmp eq i32 %5, 0
  %20 = and i1 %19, %18
  br label %_ZNK6icu_7712UnifiedCache13removeHardRefEPKNS_12SharedObjectE.exit

21:                                               ; preds = %8, %12
  %22 = getelementptr inbounds nuw i8, ptr %0, i64 48
  %23 = load ptr, ptr %22, align 8, !tbaa !33
  %24 = icmp eq ptr %7, %23
  %25 = icmp eq i32 %5, 0
  %26 = and i1 %25, %24
  %27 = atomicrmw sub ptr %9, i32 1 seq_cst, align 4
  %28 = icmp eq i32 %27, 1
  br i1 %28, label %29, label %_ZNK6icu_7712UnifiedCache13removeHardRefEPKNS_12SharedObjectE.exit

29:                                               ; preds = %21
  %30 = getelementptr inbounds nuw i8, ptr %0, i64 24
  %31 = load i32, ptr %30, align 8, !tbaa !30
  %32 = add nsw i32 %31, -1
  store i32 %32, ptr %30, align 8, !tbaa !30
  br label %_ZNK6icu_7712UnifiedCache13removeHardRefEPKNS_12SharedObjectE.exit

_ZNK6icu_7712UnifiedCache13removeHardRefEPKNS_12SharedObjectE.exit: ; preds = %_ZNK6icu_7712UnifiedCache6_fetchEPK12UHashElementRPKNS_12SharedObjectER10UErrorCode.exit, %21, %29
  %.in = phi i1 [ %20, %_ZNK6icu_7712UnifiedCache6_fetchEPK12UHashElementRPKNS_12SharedObjectER10UErrorCode.exit ], [ %26, %21 ], [ %26, %29 ]
  %33 = zext i1 %.in to i8
  ret i8 %33
}